target datalayout = "e-m:e-p270:32:32-p271:32:32-p272:64:64-i64:64-i128:128-f80:128-n8:16:32:64-S128"
target triple = "x86_64-pc-linux-gnu"

@hf_sysact_instninfo_clsid = internal global i32 0, align 4
@hf_sysact_instninfo_clsctx = internal global i32 0, align 4
@hf_sysact_instninfo_actflags = internal global i32 0, align 4
@hf_sysact_instninfo_issurrogate = internal global i32 0, align 4
@hf_sysact_instninfo_iidcount = internal global i32 0, align 4
@hf_sysact_instninfo_instflags = internal global i32 0, align 4
@hf_sysact_instninfo_entiresize = internal global i32 0, align 4
@hf_sysact_unused_buffer = internal global i32 0, align 4
@ett_dcom_instantianinfo = internal global i32 0, align 4
@.str.159 = private unnamed_addr constant [18 x i8] c"InstantiationInfo\00", align 1
@.str.160 = private unnamed_addr constant [16 x i8] c"InterfaceIdsPtr\00", align 1

; Function Attrs: null_pointer_is_valid sspstrong uwtable
define internal i32 @dissect_dcom_InstantiationInfo(ptr noundef %0, i32 noundef %1, ptr noundef %2, ptr noundef %3, ptr noundef %4, ptr noundef %5, i32 noundef %6) #0 {
  %8 = alloca ptr, align 8
  %9 = alloca i32, align 4
  %10 = alloca ptr, align 8
  %11 = alloca ptr, align 8
  %12 = alloca ptr, align 8
  %13 = alloca ptr, align 8
  %14 = alloca i32, align 4
  %15 = alloca ptr, align 8
  %16 = alloca i32, align 4
  %17 = alloca i32, align 4
  store ptr %0, ptr %8, align 8
  store i32 %1, ptr %9, align 4
  store ptr %2, ptr %10, align 8
  store ptr %3, ptr %11, align 8
  store ptr %4, ptr %12, align 8
  store ptr %5, ptr %13, align 8
  store i32 %6, ptr %14, align 4
  call void @llvm.lifetime.start.p0(i64 8, ptr %15) #5
  call void @llvm.lifetime.start.p0(i64 4, ptr %16) #5
  call void @llvm.lifetime.start.p0(i64 4, ptr %17) #5
  %18 = load i32, ptr %9, align 4
  store i32 %18, ptr %16, align 4
  %19 = load i32, ptr %14, align 4
  %20 = icmp sle i32 %19, 0
  br i1 %20, label %21, label %22

21:                                               ; preds = %7
  store i32 -1, ptr %14, align 4
  br label %22

22:                                               ; preds = %21, %7
  %23 = load ptr, ptr %11, align 8
  %24 = load ptr, ptr %8, align 8
  %25 = load i32, ptr %9, align 4
  %26 = load i32, ptr %14, align 4
  %27 = load i32, ptr @ett_dcom_instantianinfo, align 4
  %28 = call ptr @proto_tree_add_subtree(ptr noundef %23, ptr noundef %24, i32 noundef %25, i32 noundef %26, i32 noundef %27, ptr noundef null, ptr noundef @.str.159)
  store ptr %28, ptr %15, align 8
  %29 = load ptr, ptr %8, align 8
  %30 = load i32, ptr %9, align 4
  %31 = load ptr, ptr %10, align 8
  %32 = load ptr, ptr %15, align 8
  %33 = load ptr, ptr %12, align 8
  %34 = load ptr, ptr %13, align 8
  %35 = call i32 @dissect_TypeSzCommPrivHdr(ptr noundef %29, i32 noundef %30, ptr noundef %31, ptr noundef %32, ptr noundef %33, ptr noundef %34)
  store i32 %35, ptr %9, align 4
  %36 = load ptr, ptr %8, align 8
  %37 = load i32, ptr %9, align 4
  %38 = load ptr, ptr %10, align 8
  %39 = load ptr, ptr %15, align 8
  %40 = load ptr, ptr %12, align 8
  %41 = load ptr, ptr %13, align 8
  %42 = load i32, ptr @hf_sysact_instninfo_clsid, align 4
  %43 = call i32 @dissect_dcom_UUID(ptr noundef %36, i32 noundef %37, ptr noundef %38, ptr noundef %39, ptr noundef %40, ptr noundef %41, i32 noundef %42, ptr noundef null)
  store i32 %43, ptr %9, align 4
  %44 = load ptr, ptr %8, align 8
  %45 = load i32, ptr %9, align 4
  %46 = load ptr, ptr %10, align 8
  %47 = load ptr, ptr %15, align 8
  %48 = load ptr, ptr %12, align 8
  %49 = load ptr, ptr %13, align 8
  %50 = load i32, ptr @hf_sysact_instninfo_clsctx, align 4
  %51 = call i32 @dissect_ndr_uint32(ptr noundef %44, i32 noundef %45, ptr noundef %46, ptr noundef %47, ptr noundef %48, ptr noundef %49, i32 noundef %50, ptr noundef null)
  store i32 %51, ptr %9, align 4
  %52 = load ptr, ptr %8, align 8
  %53 = load i32, ptr %9, align 4
  %54 = load ptr, ptr %10, align 8
  %55 = load ptr, ptr %15, align 8
  %56 = load ptr, ptr %12, align 8
  %57 = load ptr, ptr %13, align 8
  %58 = load i32, ptr @hf_sysact_instninfo_actflags, align 4
  %59 = call i32 @dissect_ndr_uint32(ptr noundef %52, i32 noundef %53, ptr noundef %54, ptr noundef %55, ptr noundef %56, ptr noundef %57, i32 noundef %58, ptr noundef null)
  store i32 %59, ptr %9, align 4
  %60 = load ptr, ptr %8, align 8
  %61 = load i32, ptr %9, align 4
  %62 = load ptr, ptr %10, align 8
  %63 = load ptr, ptr %15, align 8
  %64 = load ptr, ptr %12, align 8
  %65 = load ptr, ptr %13, align 8
  %66 = load i32, ptr @hf_sysact_instninfo_issurrogate, align 4
  %67 = call i32 @dissect_ndr_uint32(ptr noundef %60, i32 noundef %61, ptr noundef %62, ptr noundef %63, ptr noundef %64, ptr noundef %65, i32 noundef %66, ptr noundef null)
  store i32 %67, ptr %9, align 4
  %68 = load ptr, ptr %8, align 8
  %69 = load i32, ptr %9, align 4
  %70 = load ptr, ptr %10, align 8
  %71 = load ptr, ptr %15, align 8
  %72 = load ptr, ptr %12, align 8
  %73 = load ptr, ptr %13, align 8
  %74 = load i32, ptr @hf_sysact_instninfo_iidcount, align 4
  %75 = call i32 @dissect_ndr_uint32(ptr noundef %68, i32 noundef %69, ptr noundef %70, ptr noundef %71, ptr noundef %72, ptr noundef %73, i32 noundef %74, ptr noundef null)
  store i32 %75, ptr %9, align 4
  %76 = load ptr, ptr %8, align 8
  %77 = load i32, ptr %9, align 4
  %78 = load ptr, ptr %10, align 8
  %79 = load ptr, ptr %15, align 8
  %80 = load ptr, ptr %12, align 8
  %81 = load ptr, ptr %13, align 8
  %82 = load i32, ptr @hf_sysact_instninfo_instflags, align 4
  %83 = call i32 @dissect_ndr_uint32(ptr noundef %76, i32 noundef %77, ptr noundef %78, ptr noundef %79, ptr noundef %80, ptr noundef %81, i32 noundef %82, ptr noundef null)
  store i32 %83, ptr %9, align 4
  %84 = load ptr, ptr %8, align 8
  %85 = load i32, ptr %9, align 4
  %86 = load ptr, ptr %10, align 8
  %87 = load ptr, ptr %15, align 8
  %88 = load ptr, ptr %12, align 8
  %89 = load ptr, ptr %13, align 8
  %90 = call i32 @dissect_ndr_embedded_pointer(ptr noundef %84, i32 noundef %85, ptr noundef %86, ptr noundef %87, ptr noundef %88, ptr noundef %89, ptr noundef @dissect_InstantiationInfoIids, i32 noundef 2, ptr noundef @.str.160, i32 noundef -1)
  store i32 %90, ptr %9, align 4
  %91 = load ptr, ptr %8, align 8
  %92 = load i32, ptr %9, align 4
  %93 = load ptr, ptr %10, align 8
  %94 = load ptr, ptr %15, align 8
  %95 = load ptr, ptr %12, align 8
  %96 = load ptr, ptr %13, align 8
  %97 = load i32, ptr @hf_sysact_instninfo_entiresize, align 4
  %98 = call i32 @dissect_ndr_uint32(ptr noundef %91, i32 noundef %92, ptr noundef %93, ptr noundef %94, ptr noundef %95, ptr noundef %96, i32 noundef %97, ptr noundef null)
  store i32 %98, ptr %9, align 4
  %99 = load ptr, ptr %8, align 8
  %100 = load i32, ptr %9, align 4
  %101 = load ptr, ptr %10, align 8
  %102 = load ptr, ptr %15, align 8
  %103 = load ptr, ptr %12, align 8
  %104 = load ptr, ptr %13, align 8
  %105 = call i32 @dissect_dcom_COMVERSION(ptr noundef %99, i32 noundef %100, ptr noundef %101, ptr noundef %102, ptr noundef %103, ptr noundef %104, ptr noundef null, ptr noundef null)
  store i32 %105, ptr %9, align 4
  %106 = load ptr, ptr %10, align 8
  %107 = load ptr, ptr %8, align 8
  %108 = load i32, ptr %9, align 4
  %109 = load ptr, ptr %12, align 8
  %110 = load ptr, ptr %13, align 8
  %111 = call i32 @dissect_deferred_pointers(ptr noundef %106, ptr noundef %107, i32 noundef %108, ptr noundef %109, ptr noundef %110)
  store i32 %111, ptr %9, align 4
  %112 = load i32, ptr %9, align 4
  %113 = load i32, ptr %16, align 4
  %114 = sub i32 %112, %113
  store i32 %114, ptr %17, align 4
  %115 = load i32, ptr %14, align 4
  %116 = load i32, ptr %17, align 4
  %117 = icmp slt i32 %115, %116
  br i1 %117, label %118, label %120

118:                                              ; preds = %22
  %119 = load i32, ptr %17, align 4
  store i32 %119, ptr %14, align 4
  br label %134

120:                                              ; preds = %22
  %121 = load i32, ptr %14, align 4
  %122 = load i32, ptr %17, align 4
  %123 = icmp sgt i32 %121, %122
  br i1 %123, label %124, label %133

124:                                              ; preds = %120
  %125 = load ptr, ptr %15, align 8
  %126 = load i32, ptr @hf_sysact_unused_buffer, align 4
  %127 = load ptr, ptr %8, align 8
  %128 = load i32, ptr %9, align 4
  %129 = load i32, ptr %14, align 4
  %130 = load i32, ptr %17, align 4
  %131 = sub i32 %129, %130
  %132 = call ptr @proto_tree_add_item(ptr noundef %125, i32 noundef %126, ptr noundef %127, i32 noundef %128, i32 noundef %131, i32 noundef 0)
  br label %133

133:                                              ; preds = %124, %120
  br label %134

134:                                              ; preds = %133, %118
  %135 = load i32, ptr %16, align 4
  %136 = load i32, ptr %14, align 4
  %137 = add i32 %135, %136
  store i32 %137, ptr %9, align 4
  %138 = load i32, ptr %9, align 4
  call void @llvm.lifetime.end.p0(i64 4, ptr %17) #5
  call void @llvm.lifetime.end.p0(i64 4, ptr %16) #5
  call void @llvm.lifetime.end.p0(i64 8, ptr %15) #5
  ret i32 %138
}