; Function Attrs: null_pointer_is_valid sspstrong uwtable
define internal i32 @dissect_dcom_InstantiationInfo(ptr noundef %0, i32 noundef %1, ptr noundef %2, ptr noundef %3, ptr noundef %4, ptr noundef %5, i32 noundef %6) #0 {
  %8 = icmp slt i32 %6, 1
  %spec.store.select = select i1 %8, i32 -1, i32 %6
  %9 = load i32, ptr @ett_dcom_instantianinfo, align 4
  %10 = tail call ptr @proto_tree_add_subtree(ptr noundef %3, ptr noundef %0, i32 noundef %1, i32 noundef %spec.store.select, i32 noundef %9, ptr noundef null, ptr noundef nonnull @.str.159)
  %11 = tail call fastcc i32 @dissect_TypeSzCommPrivHdr(ptr noundef %0, i32 noundef %1, ptr noundef %2, ptr noundef %10, ptr noundef %4, ptr noundef %5)
  %12 = load i32, ptr @hf_sysact_instninfo_clsid, align 4
  %13 = tail call i32 @dissect_dcom_UUID(ptr noundef %0, i32 noundef %11, ptr noundef %2, ptr noundef %10, ptr noundef %4, ptr noundef %5, i32 noundef %12, ptr noundef null)
  %14 = load i32, ptr @hf_sysact_instninfo_clsctx, align 4
  %15 = tail call i32 @dissect_ndr_uint32(ptr noundef %0, i32 noundef %13, ptr noundef %2, ptr noundef %10, ptr noundef %4, ptr noundef %5, i32 noundef %14, ptr noundef null)
  %16 = load i32, ptr @hf_sysact_instninfo_actflags, align 4
  %17 = tail call i32 @dissect_ndr_uint32(ptr noundef %0, i32 noundef %15, ptr noundef %2, ptr noundef %10, ptr noundef %4, ptr noundef %5, i32 noundef %16, ptr noundef null)
  %18 = load i32, ptr @hf_sysact_instninfo_issurrogate, align 4
  %19 = tail call i32 @dissect_ndr_uint32(ptr noundef %0, i32 noundef %17, ptr noundef %2, ptr noundef %10, ptr noundef %4, ptr noundef %5, i32 noundef %18, ptr noundef null)
  %20 = load i32, ptr @hf_sysact_instninfo_iidcount, align 4
  %21 = tail call i32 @dissect_ndr_uint32(ptr noundef %0, i32 noundef %19, ptr noundef %2, ptr noundef %10, ptr noundef %4, ptr noundef %5, i32 noundef %20, ptr noundef null)
  %22 = load i32, ptr @hf_sysact_instninfo_instflags, align 4
  %23 = tail call i32 @dissect_ndr_uint32(ptr noundef %0, i32 noundef %21, ptr noundef %2, ptr noundef %10, ptr noundef %4, ptr noundef %5, i32 noundef %22, ptr noundef null)
  %24 = tail call i32 @dissect_ndr_embedded_pointer(ptr noundef %0, i32 noundef %23, ptr noundef %2, ptr noundef %10, ptr noundef %4, ptr noundef %5, ptr noundef nonnull @dissect_InstantiationInfoIids, i32 noundef 2, ptr noundef nonnull @.str.160, i32 noundef -1)
  %25 = load i32, ptr @hf_sysact_instninfo_entiresize, align 4
  %26 = tail call i32 @dissect_ndr_uint32(ptr noundef %0, i32 noundef %24, ptr noundef %2, ptr noundef %10, ptr noundef %4, ptr noundef %5, i32 noundef %25, ptr noundef null)
  %27 = tail call i32 @dissect_dcom_COMVERSION(ptr noundef %0, i32 noundef %26, ptr noundef %2, ptr noundef %10, ptr noundef %4, ptr noundef %5, ptr noundef null, ptr noundef null)
  %28 = tail call i32 @dissect_deferred_pointers(ptr noundef %2, ptr noundef %0, i32 noundef %27, ptr noundef %4, ptr noundef %5)
  %29 = sub i32 %28, %1
  %30 = icmp slt i32 %spec.store.select, %29
  br i1 %30, label %37, label %31

31:                                               ; preds = %7
  %32 = icmp sgt i32 %spec.store.select, %29
  br i1 %32, label %33, label %37

33:                                               ; preds = %31
  %34 = load i32, ptr @hf_sysact_unused_buffer, align 4
  %35 = sub i32 %spec.store.select, %29
  %36 = tail call ptr @proto_tree_add_item(ptr noundef %10, i32 noundef %34, ptr noundef %0, i32 noundef %28, i32 noundef %35, i32 noundef 0)
  br label %37

37:                                               ; preds = %7, %31, %33
  %.0 = phi i32 [ %spec.store.select, %33 ], [ %spec.store.select, %31 ], [ %29, %7 ]
  %38 = add i32 %.0, %1
  ret i32 %38
}